target datalayout = "e-m:e-p270:32:32-p271:32:32-p272:64:64-i64:64-i128:128-f80:128-n8:16:32:64-S128"
target triple = "x86_64-pc-linux-gnu"

%"class.testing::internal::linked_ptr_internal" = type { ptr }
%"class.testing::internal::ParamGenerator.60" = type { %"class.testing::internal::linked_ptr.61" }
%"class.testing::internal::linked_ptr.61" = type { ptr, %"class.testing::internal::linked_ptr_internal" }
%"class.testing::internal::ParamGenerator.70" = type { %"class.testing::internal::linked_ptr.71" }
%"class.testing::internal::linked_ptr.71" = type { ptr, %"class.testing::internal::linked_ptr_internal" }
%"class.testing::internal::CartesianProductGenerator2" = type { %"class.testing::internal::ParamGeneratorInterface.69", %"class.testing::internal::ParamGenerator.60", %"class.testing::internal::ParamGenerator.70" }
%"class.testing::internal::ParamGeneratorInterface.69" = type { ptr }
%"class.testing::internal::ParamIterator" = type { %"class.testing::internal::scoped_ptr.83" }
%"class.testing::internal::scoped_ptr.83" = type { ptr }
%"class.testing::internal::ParamIterator.84" = type { %"class.testing::internal::scoped_ptr.85" }
%"class.testing::internal::scoped_ptr.85" = type { ptr }

; Function Attrs: mustprogress nounwind uwtable
define linkonce_odr hidden void @_ZN7testing8internal10scoped_ptrINS0_22ParamIteratorInterfaceINSt7__cxx1112basic_stringIcSt11char_traitsIcESaIcEEEEEEC2EPS9_(ptr noundef nonnull align 8 dereferenceable(8) %0, ptr noundef %1) unnamed_addr #4 comdat align 2 {
  %3 = alloca ptr, align 8
  %4 = alloca ptr, align 8
  store ptr %0, ptr %3, align 8
  store ptr %1, ptr %4, align 8
  %5 = load ptr, ptr %3, align 8
  %6 = getelementptr inbounds %"class.testing::internal::scoped_ptr.85", ptr %5, i32 0, i32 0
  %7 = load ptr, ptr %4, align 8
  store ptr %7, ptr %6, align 8
  ret void
}

; Function Attrs: mustprogress nounwind uwtable
define internal void @_ZN7testing8internal10scoped_ptrINS0_22ParamIteratorInterfaceIN11opencv_test12_GLOBAL__N_113Feature2DTypeEEEEC2EPS6_(ptr noundef nonnull align 8 dereferenceable(8) %0, ptr noundef %1) unnamed_addr #4 align 2 {
  %3 = alloca ptr, align 8
  %4 = alloca ptr, align 8
  store ptr %0, ptr %3, align 8
  store ptr %1, ptr %4, align 8
  %5 = load ptr, ptr %3, align 8
  %6 = getelementptr inbounds %"class.testing::internal::scoped_ptr.83", ptr %5, i32 0, i32 0
  %7 = load ptr, ptr %4, align 8
  store ptr %7, ptr %6, align 8
  ret void
}

; Function Attrs: mustprogress uwtable
define linkonce_odr hidden void @_ZN7testing8internal13ParamIteratorINSt7__cxx1112basic_stringIcSt11char_traitsIcESaIcEEEEC2EPNS0_22ParamIteratorInterfaceIS7_EE(ptr noundef nonnull align 8 dereferenceable(8) %0, ptr noundef %1) unnamed_addr #5 comdat align 2 {
  %3 = alloca ptr, align 8
  %4 = alloca ptr, align 8
  store ptr %0, ptr %3, align 8
  store ptr %1, ptr %4, align 8
  %5 = load ptr, ptr %3, align 8
  %6 = getelementptr inbounds %"class.testing::internal::ParamIterator.84", ptr %5, i32 0, i32 0
  %7 = load ptr, ptr %4, align 8
  call void @_ZN7testing8internal10scoped_ptrINS0_22ParamIteratorInterfaceINSt7__cxx1112basic_stringIcSt11char_traitsIcESaIcEEEEEEC2EPS9_(ptr noundef nonnull align 8 dereferenceable(8) %6, ptr noundef %7)
  ret void
}

; Function Attrs: mustprogress nounwind uwtable
define linkonce_odr hidden noundef ptr @_ZNK7testing8internal10linked_ptrIKNS0_23ParamGeneratorInterfaceINSt7__cxx1112basic_stringIcSt11char_traitsIcESaIcEEEEEEptEv(ptr noundef nonnull align 8 dereferenceable(16) %0) #4 comdat align 2 {
  %2 = alloca ptr, align 8
  store ptr %0, ptr %2, align 8
  %3 = load ptr, ptr %2, align 8
  %4 = getelementptr inbounds %"class.testing::internal::linked_ptr.71", ptr %3, i32 0, i32 0
  %5 = load ptr, ptr %4, align 8
  ret ptr %5
}

; Function Attrs: mustprogress uwtable
define internal void @_ZN7testing8internal13ParamIteratorIN11opencv_test12_GLOBAL__N_113Feature2DTypeEEC2EPNS0_22ParamIteratorInterfaceIS4_EE(ptr noundef nonnull align 8 dereferenceable(8) %0, ptr noundef %1) unnamed_addr #5 align 2 {
  %3 = alloca ptr, align 8
  %4 = alloca ptr, align 8
  store ptr %0, ptr %3, align 8
  store ptr %1, ptr %4, align 8
  %5 = load ptr, ptr %3, align 8
  %6 = getelementptr inbounds %"class.testing::internal::ParamIterator", ptr %5, i32 0, i32 0
  %7 = load ptr, ptr %4, align 8
  call void @_ZN7testing8internal10scoped_ptrINS0_22ParamIteratorInterfaceIN11opencv_test12_GLOBAL__N_113Feature2DTypeEEEEC2EPS6_(ptr noundef nonnull align 8 dereferenceable(8) %6, ptr noundef %7)
  ret void
}

; Function Attrs: mustprogress nounwind uwtable
define internal noundef ptr @_ZNK7testing8internal10linked_ptrIKNS0_23ParamGeneratorInterfaceIN11opencv_test12_GLOBAL__N_113Feature2DTypeEEEEptEv(ptr noundef nonnull align 8 dereferenceable(16) %0) #4 align 2 {
  %2 = alloca ptr, align 8
  store ptr %0, ptr %2, align 8
  %3 = load ptr, ptr %2, align 8
  %4 = getelementptr inbounds %"class.testing::internal::linked_ptr.61", ptr %3, i32 0, i32 0
  %5 = load ptr, ptr %4, align 8
  ret ptr %5
}

; Function Attrs: mustprogress uwtable
define linkonce_odr hidden void @_ZNK7testing8internal14ParamGeneratorINSt7__cxx1112basic_stringIcSt11char_traitsIcESaIcEEEE5beginEv(ptr dead_on_unwind noalias writable sret(%"class.testing::internal::ParamIterator.84") align 8 %0, ptr noundef nonnull align 8 dereferenceable(16) %1) #5 comdat align 2 {
  %3 = alloca ptr, align 8
  %4 = alloca ptr, align 8
  store ptr %0, ptr %3, align 8
  store ptr %1, ptr %4, align 8
  %5 = load ptr, ptr %4, align 8
  %6 = getelementptr inbounds %"class.testing::internal::ParamGenerator.70", ptr %5, i32 0, i32 0
  %7 = call noundef ptr @_ZNK7testing8internal10linked_ptrIKNS0_23ParamGeneratorInterfaceINSt7__cxx1112basic_stringIcSt11char_traitsIcESaIcEEEEEEptEv(ptr noundef nonnull align 8 dereferenceable(16) %6)
  %8 = load ptr, ptr %7, align 8
  %9 = getelementptr inbounds ptr, ptr %8, i64 2
  %10 = load ptr, ptr %9, align 8
  %11 = call noundef ptr %10(ptr noundef nonnull align 8 dereferenceable(8) %7)
  call void @_ZN7testing8internal13ParamIteratorINSt7__cxx1112basic_stringIcSt11char_traitsIcESaIcEEEEC2EPNS0_22ParamIteratorInterfaceIS7_EE(ptr noundef nonnull align 8 dereferenceable(8) %0, ptr noundef %11)
  ret void
}

; Function Attrs: mustprogress uwtable
define internal void @_ZNK7testing8internal14ParamGeneratorIN11opencv_test12_GLOBAL__N_113Feature2DTypeEE5beginEv(ptr dead_on_unwind noalias writable sret(%"class.testing::internal::ParamIterator") align 8 %0, ptr noundef nonnull align 8 dereferenceable(16) %1) #5 align 2 {
  %3 = alloca ptr, align 8
  %4 = alloca ptr, align 8
  store ptr %0, ptr %3, align 8
  store ptr %1, ptr %4, align 8
  %5 = load ptr, ptr %4, align 8
  %6 = getelementptr inbounds %"class.testing::internal::ParamGenerator.60", ptr %5, i32 0, i32 0
  %7 = call noundef ptr @_ZNK7testing8internal10linked_ptrIKNS0_23ParamGeneratorInterfaceIN11opencv_test12_GLOBAL__N_113Feature2DTypeEEEEptEv(ptr noundef nonnull align 8 dereferenceable(16) %6)
  %8 = load ptr, ptr %7, align 8
  %9 = getelementptr inbounds ptr, ptr %8, i64 2
  %10 = load ptr, ptr %9, align 8
  %11 = call noundef ptr %10(ptr noundef nonnull align 8 dereferenceable(8) %7)
  call void @_ZN7testing8internal13ParamIteratorIN11opencv_test12_GLOBAL__N_113Feature2DTypeEEC2EPNS0_22ParamIteratorInterfaceIS4_EE(ptr noundef nonnull align 8 dereferenceable(8) %0, ptr noundef %11)
  ret void
}

; Function Attrs: mustprogress uwtable
define internal noundef ptr @_ZNK7testing8internal26CartesianProductGenerator2IN11opencv_test12_GLOBAL__N_113Feature2DTypeENSt7__cxx1112basic_stringIcSt11char_traitsIcESaIcEEEE5BeginEv(ptr noundef nonnull align 8 dereferenceable(40) %0) unnamed_addr #5 align 2 personality ptr @__gxx_personality_v0 {
  %2 = alloca ptr, align 8
  %3 = alloca %"class.testing::internal::ParamIterator", align 8
  %4 = alloca ptr, align 8
  %5 = alloca i32, align 4
  %6 = alloca %"class.testing::internal::ParamIterator.84", align 8
  %7 = alloca i1, align 1
  store ptr %0, ptr %2, align 8
  %8 = load ptr, ptr %2, align 8
  %9 = call noalias noundef nonnull ptr @_Znwm(i64 noundef 80) #19
  store i1 true, ptr %7, align 1
  %10 = getelementptr inbounds %"class.testing::internal::CartesianProductGenerator2", ptr %8, i32 0, i32 1
  %11 = getelementptr inbounds %"class.testing::internal::CartesianProductGenerator2", ptr %8, i32 0, i32 1
  invoke void @_ZNK7testing8internal14ParamGeneratorIN11opencv_test12_GLOBAL__N_113Feature2DTypeEE5beginEv(ptr dead_on_unwind writable sret(%"class.testing::internal::ParamIterator") align 8 %3, ptr noundef nonnull align 8 dereferenceable(16) %11)
          to label %12 unwind label %17

12:                                               ; preds = %1
  %13 = getelementptr inbounds %"class.testing::internal::CartesianProductGenerator2", ptr %8, i32 0, i32 2
  %14 = getelementptr inbounds %"class.testing::internal::CartesianProductGenerator2", ptr %8, i32 0, i32 2
  invoke void @_ZNK7testing8internal14ParamGeneratorINSt7__cxx1112basic_stringIcSt11char_traitsIcESaIcEEEE5beginEv(ptr dead_on_unwind writable sret(%"class.testing::internal::ParamIterator.84") align 8 %6, ptr noundef nonnull align 8 dereferenceable(16) %14)
          to label %15 unwind label %21

15:                                               ; preds = %12
  invoke void @_ZN7testing8internal26CartesianProductGenerator2IN11opencv_test12_GLOBAL__N_113Feature2DTypeENSt7__cxx1112basic_stringIcSt11char_traitsIcESaIcEEEE8IteratorC2EPKNS0_23ParamGeneratorInterfaceISt5tupleIJS4_SA_EEEERKNS0_14ParamGeneratorIS4_EERKNS0_13ParamIteratorIS4_EERKNSJ_ISA_EERKNSN_ISA_EE(ptr noundef nonnull align 8 dereferenceable(80) %9, ptr noundef %8, ptr noundef nonnull align 8 dereferenceable(16) %10, ptr noundef nonnull align 8 dereferenceable(8) %3, ptr noundef nonnull align 8 dereferenceable(16) %13, ptr noundef nonnull align 8 dereferenceable(8) %6)
          to label %16 unwind label %25

16:                                               ; preds = %15
  store i1 false, ptr %7, align 1
  call void @_ZN7testing8internal13ParamIteratorINSt7__cxx1112basic_stringIcSt11char_traitsIcESaIcEEEED2Ev(ptr noundef nonnull align 8 dereferenceable(8) %6) #3
  call void @_ZN7testing8internal13ParamIteratorIN11opencv_test12_GLOBAL__N_113Feature2DTypeEED2Ev(ptr noundef nonnull align 8 dereferenceable(8) %3) #3
  ret ptr %9

17:                                               ; preds = %1
  %18 = landingpad { ptr, i32 }
          cleanup
  %19 = extractvalue { ptr, i32 } %18, 0
  store ptr %19, ptr %4, align 8
  %20 = extractvalue { ptr, i32 } %18, 1
  store i32 %20, ptr %5, align 4
  br label %30

21:                                               ; preds = %12
  %22 = landingpad { ptr, i32 }
          cleanup
  %23 = extractvalue { ptr, i32 } %22, 0
  store ptr %23, ptr %4, align 8
  %24 = extractvalue { ptr, i32 } %22, 1
  store i32 %24, ptr %5, align 4
  br label %29

25:                                               ; preds = %15
  %26 = landingpad { ptr, i32 }
          cleanup
  %27 = extractvalue { ptr, i32 } %26, 0
  store ptr %27, ptr %4, align 8
  %28 = extractvalue { ptr, i32 } %26, 1
  store i32 %28, ptr %5, align 4
  call void @_ZN7testing8internal13ParamIteratorINSt7__cxx1112basic_stringIcSt11char_traitsIcESaIcEEEED2Ev(ptr noundef nonnull align 8 dereferenceable(8) %6) #3
  br label %29

29:                                               ; preds = %25, %21
  call void @_ZN7testing8internal13ParamIteratorIN11opencv_test12_GLOBAL__N_113Feature2DTypeEED2Ev(ptr noundef nonnull align 8 dereferenceable(8) %3) #3
  br label %30

30:                                               ; preds = %29, %17
  %31 = load i1, ptr %7, align 1
  br i1 %31, label %32, label %33

32:                                               ; preds = %30
  call void @_ZdlPv(ptr noundef %9) #20
  br label %33

33:                                               ; preds = %32, %30
  br label %34

34:                                               ; preds = %33
  %35 = load ptr, ptr %4, align 8
  %36 = load i32, ptr %5, align 4
  %37 = insertvalue { ptr, i32 } poison, ptr %35, 0
  %38 = insertvalue { ptr, i32 } %37, i32 %36, 1
  resume { ptr, i32 } %38
}