; Function Attrs: mustprogress uwtable
define internal noundef ptr @_ZNK7testing8internal26CartesianProductGenerator2IN11opencv_test12_GLOBAL__N_113Feature2DTypeENSt7__cxx1112basic_stringIcSt11char_traitsIcESaIcEEEE5BeginEv(ptr noundef nonnull align 8 dereferenceable(40) %0) unnamed_addr #3 align 2 personality ptr @__gxx_personality_v0 {
  %2 = alloca %"class.testing::internal::ParamIterator", align 8
  %3 = alloca %"class.testing::internal::ParamIterator.84", align 8
  %4 = tail call noalias noundef nonnull dereferenceable(80) ptr @_Znwm(i64 noundef 80) #27
  %5 = getelementptr inbounds i8, ptr %0, i64 8
  %.val = load ptr, ptr %5, align 8
  tail call void @llvm.experimental.noalias.scope.decl(metadata !47)
  %6 = load ptr, ptr %.val, align 8, !noalias !47
  %7 = getelementptr inbounds i8, ptr %6, i64 16
  %8 = load ptr, ptr %7, align 8, !noalias !47
  %9 = invoke noundef ptr %8(ptr noundef nonnull align 8 dereferenceable(8) %.val)
          to label %10 unwind label %37

10:                                               ; preds = %1
  store ptr %9, ptr %2, align 8, !alias.scope !47
  %11 = getelementptr inbounds i8, ptr %0, i64 24
  tail call void @llvm.experimental.noalias.scope.decl(metadata !50)
  %12 = load ptr, ptr %11, align 8, !noalias !50
  %13 = load ptr, ptr %12, align 8, !noalias !50
  %14 = getelementptr inbounds i8, ptr %13, i64 16
  %15 = load ptr, ptr %14, align 8, !noalias !50
  %16 = invoke noundef ptr %15(ptr noundef nonnull align 8 dereferenceable(8) %12)
          to label %17 unwind label %39

17:                                               ; preds = %10
  store ptr %16, ptr %3, align 8, !alias.scope !50
  invoke fastcc void @_ZN7testing8internal26CartesianProductGenerator2IN11opencv_test12_GLOBAL__N_113Feature2DTypeENSt7__cxx1112basic_stringIcSt11char_traitsIcESaIcEEEE8IteratorC2EPKNS0_23ParamGeneratorInterfaceISt5tupleIJS4_SA_EEEERKNS0_14ParamGeneratorIS4_EERKNS0_13ParamIteratorIS4_EERKNSJ_ISA_EERKNSN_ISA_EE(ptr noundef nonnull align 8 dereferenceable(80) %4, ptr noundef nonnull %0, ptr noundef nonnull align 8 dereferenceable(16) %5, ptr noundef nonnull align 8 dereferenceable(8) %2, ptr noundef nonnull align 8 dereferenceable(16) %11, ptr noundef nonnull align 8 dereferenceable(8) %3)
          to label %18 unwind label %41

18:                                               ; preds = %17
  %.not.i.i.i = icmp eq ptr %16, null
  br i1 %.not.i.i.i, label %_ZN7testing8internal13ParamIteratorINSt7__cxx1112basic_stringIcSt11char_traitsIcESaIcEEEED2Ev.exit, label %19

19:                                               ; preds = %18
  %20 = invoke noundef zeroext i1 @_ZN7testing8internal6IsTrueEb(i1 noundef zeroext true)
          to label %.noexc.i.i unwind label %25

.noexc.i.i:                                       ; preds = %19
  br i1 %20, label %21, label %_ZN7testing8internal13ParamIteratorINSt7__cxx1112basic_stringIcSt11char_traitsIcESaIcEEEED2Ev.exit

21:                                               ; preds = %.noexc.i.i
  %22 = load ptr, ptr %16, align 8
  %23 = getelementptr inbounds i8, ptr %22, i64 8
  %24 = load ptr, ptr %23, align 8
  tail call void %24(ptr noundef nonnull align 8 dereferenceable(8) %16) #26
  br label %_ZN7testing8internal13ParamIteratorINSt7__cxx1112basic_stringIcSt11char_traitsIcESaIcEEEED2Ev.exit

25:                                               ; preds = %19
  %26 = landingpad { ptr, i32 }
          catch ptr null
  %27 = extractvalue { ptr, i32 } %26, 0
  tail call void @__clang_call_terminate(ptr %27) #28
  unreachable

_ZN7testing8internal13ParamIteratorINSt7__cxx1112basic_stringIcSt11char_traitsIcESaIcEEEED2Ev.exit: ; preds = %.noexc.i.i, %21, %18
  %.not.i.i.i7 = icmp eq ptr %9, null
  br i1 %.not.i.i.i7, label %_ZN7testing8internal13ParamIteratorIN11opencv_test12_GLOBAL__N_113Feature2DTypeEED2Ev.exit, label %28

28:                                               ; preds = %_ZN7testing8internal13ParamIteratorINSt7__cxx1112basic_stringIcSt11char_traitsIcESaIcEEEED2Ev.exit
  %29 = invoke noundef zeroext i1 @_ZN7testing8internal6IsTrueEb(i1 noundef zeroext true)
          to label %.noexc.i.i8 unwind label %34

.noexc.i.i8:                                      ; preds = %28
  br i1 %29, label %30, label %_ZN7testing8internal13ParamIteratorIN11opencv_test12_GLOBAL__N_113Feature2DTypeEED2Ev.exit

30:                                               ; preds = %.noexc.i.i8
  %31 = load ptr, ptr %9, align 8
  %32 = getelementptr inbounds i8, ptr %31, i64 8
  %33 = load ptr, ptr %32, align 8
  tail call void %33(ptr noundef nonnull align 8 dereferenceable(8) %9) #26
  br label %_ZN7testing8internal13ParamIteratorIN11opencv_test12_GLOBAL__N_113Feature2DTypeEED2Ev.exit

34:                                               ; preds = %28
  %35 = landingpad { ptr, i32 }
          catch ptr null
  %36 = extractvalue { ptr, i32 } %35, 0
  tail call void @__clang_call_terminate(ptr %36) #28
  unreachable

_ZN7testing8internal13ParamIteratorIN11opencv_test12_GLOBAL__N_113Feature2DTypeEED2Ev.exit: ; preds = %.noexc.i.i8, %30, %_ZN7testing8internal13ParamIteratorINSt7__cxx1112basic_stringIcSt11char_traitsIcESaIcEEEED2Ev.exit
  ret ptr %4

37:                                               ; preds = %1
  %38 = landingpad { ptr, i32 }
          cleanup
  br label %44

39:                                               ; preds = %10
  %40 = landingpad { ptr, i32 }
          cleanup
  br label %43

41:                                               ; preds = %17
  %42 = landingpad { ptr, i32 }
          cleanup
  call void @_ZN7testing8internal13ParamIteratorINSt7__cxx1112basic_stringIcSt11char_traitsIcESaIcEEEED2Ev(ptr noundef nonnull align 8 dereferenceable(8) %3) #26
  br label %43

43:                                               ; preds = %41, %39
  %.pn = phi { ptr, i32 } [ %42, %41 ], [ %40, %39 ]
  call fastcc void @_ZN7testing8internal13ParamIteratorIN11opencv_test12_GLOBAL__N_113Feature2DTypeEED2Ev(ptr noundef nonnull align 8 dereferenceable(8) %2) #26
  br label %44

44:                                               ; preds = %37, %43
  %.pn.pn = phi { ptr, i32 } [ %.pn, %43 ], [ %38, %37 ]
  call void @_ZdlPv(ptr noundef nonnull %4) #29
  resume { ptr, i32 } %.pn.pn
}